; Function Attrs: nounwind uwtable
define internal ptr @Pointer_get_contents(ptr noundef %0, ptr readnone captures(none) %1) #0 {
  %3 = getelementptr i8, ptr %0, i64 16
  %.val12 = load ptr, ptr %3, align 16, !tbaa !42
  %.val12.val = load ptr, ptr %.val12, align 8, !tbaa !46
  %4 = icmp eq ptr %.val12.val, null
  br i1 %4, label %5, label %PyStgInfo_FromObject.exit

5:                                                ; preds = %2
  %6 = load ptr, ptr @PyExc_ValueError, align 8, !tbaa !27
  tail call void @PyErr_SetString(ptr noundef %6, ptr noundef nonnull @.str.172) #17
  br label %20

PyStgInfo_FromObject.exit:                        ; preds = %2
  %7 = getelementptr i8, ptr %0, i64 8
  %.val10 = load ptr, ptr %7, align 8, !tbaa !10
  %8 = getelementptr i8, ptr %.val10, i64 8
  %.val = load ptr, ptr %8, align 8, !tbaa !10
  %9 = tail call ptr @PyType_GetModuleByDef(ptr noundef %.val, ptr noundef nonnull @_ctypesmodule) #17
  %10 = getelementptr i8, ptr %9, i64 32
  %.val.i = load ptr, ptr %10, align 8, !tbaa !63
  %.val11 = load ptr, ptr %7, align 8, !tbaa !10
  %11 = getelementptr inbounds nuw i8, ptr %.val.i, i64 40
  %12 = load ptr, ptr %11, align 8, !tbaa !28
  %13 = tail call i32 @PyObject_IsInstance(ptr noundef %.val11, ptr noundef %12) #17
  %.not.i.i = icmp ne i32 %13, 0
  tail call void @llvm.assume(i1 %.not.i.i)
  %14 = load ptr, ptr %11, align 8, !tbaa !28
  %15 = tail call ptr @PyObject_GetTypeData(ptr noundef %.val11, ptr noundef %14) #17
  %16 = load i32, ptr %15, align 8, !tbaa !29
  %.not8.i.i = icmp ne i32 %16, 0
  tail call void @llvm.assume(i1 %.not8.i.i)
  %17 = getelementptr inbounds nuw i8, ptr %15, i64 56
  %18 = load ptr, ptr %17, align 8, !tbaa !59
  %19 = tail call ptr @PyCData_FromBaseObj(ptr noundef nonnull %.val.i, ptr noundef %18, ptr noundef nonnull %0, i64 noundef 0, ptr noundef nonnull %.val12.val)
  br label %20

20:                                               ; preds = %PyStgInfo_FromObject.exit, %5
  %.0 = phi ptr [ null, %5 ], [ %19, %PyStgInfo_FromObject.exit ]
  ret ptr %.0
}